; Function Attrs: mustprogress nofree norecurse nosync nounwind willreturn memory(read, inaccessiblemem: none) uwtable
define internal noundef zeroext i1 @"_ZNSt17_Function_handlerIFbRKN4llvm13LegalityQueryEEZNS0_20AArch64LegalizerInfoC1ERKNS0_16AArch64SubtargetEE4$_35E9_M_invokeERKSt9_Any_dataS3_"(ptr nocapture nonnull readnone align 8 %0, ptr nocapture noundef nonnull readonly align 8 dereferenceable(40) %1) #11 align 2 {
  %3 = getelementptr inbounds i8, ptr %1, i64 8
  %.val = load ptr, ptr %3, align 8
  %.val.val = load i64, ptr %.val, align 8
  %4 = getelementptr i8, ptr %.val, i64 8
  %.val.val2 = load i64, ptr %4, align 8
  %5 = and i64 %.val.val, -7
  %spec.select.i.i.i.i.i = icmp ne i64 %5, 0
  %6 = and i64 %.val.val, 4
  %7 = icmp ne i64 %6, 0
  %8 = and i1 %spec.select.i.i.i.i.i, %7
  %9 = and i64 %.val.val2, -7
  %spec.select.i.i2.i.i.i = icmp ne i64 %9, 0
  %10 = and i64 %.val.val2, 4
  %11 = icmp ne i64 %10, 0
  %12 = and i1 %spec.select.i.i2.i.i.i, %11
  %13 = xor i1 %8, %12
  ret i1 %13
}